target datalayout = "e-m:e-p270:32:32-p271:32:32-p272:64:64-i64:64-i128:128-f80:128-n8:16:32:64-S128"
target triple = "x86_64-pc-linux-gnu"

%struct.Vec_Mem_t_ = type { i32, i32, i32, i32, i32, i32, ptr, ptr, ptr }
%struct.Vec_Int_t_ = type { i32, i32, ptr }

; Function Attrs: inlinehint nounwind uwtable
define internal ptr @Vec_IntAlloc(i32 noundef %0) #2 {
  %2 = alloca i32, align 4
  %3 = alloca ptr, align 8
  store i32 %0, ptr %2, align 4, !tbaa !8
  call void @llvm.lifetime.start.p0(i64 8, ptr %3) #14
  %4 = call noalias ptr @malloc(i64 noundef 16) #15
  store ptr %4, ptr %3, align 8, !tbaa !39
  %5 = load i32, ptr %2, align 4, !tbaa !8
  %6 = icmp sgt i32 %5, 0
  br i1 %6, label %7, label %11

7:                                                ; preds = %1
  %8 = load i32, ptr %2, align 4, !tbaa !8
  %9 = icmp slt i32 %8, 16
  br i1 %9, label %10, label %11

10:                                               ; preds = %7
  store i32 16, ptr %2, align 4, !tbaa !8
  br label %11

11:                                               ; preds = %10, %7, %1
  %12 = load ptr, ptr %3, align 8, !tbaa !39
  %13 = getelementptr inbounds nuw %struct.Vec_Int_t_, ptr %12, i32 0, i32 1
  store i32 0, ptr %13, align 4, !tbaa !40
  %14 = load i32, ptr %2, align 4, !tbaa !8
  %15 = load ptr, ptr %3, align 8, !tbaa !39
  %16 = getelementptr inbounds nuw %struct.Vec_Int_t_, ptr %15, i32 0, i32 0
  store i32 %14, ptr %16, align 8, !tbaa !42
  %17 = load ptr, ptr %3, align 8, !tbaa !39
  %18 = getelementptr inbounds nuw %struct.Vec_Int_t_, ptr %17, i32 0, i32 0
  %19 = load i32, ptr %18, align 8, !tbaa !42
  %20 = icmp ne i32 %19, 0
  br i1 %20, label %21, label %28

21:                                               ; preds = %11
  %22 = load ptr, ptr %3, align 8, !tbaa !39
  %23 = getelementptr inbounds nuw %struct.Vec_Int_t_, ptr %22, i32 0, i32 0
  %24 = load i32, ptr %23, align 8, !tbaa !42
  %25 = sext i32 %24 to i64
  %26 = mul i64 4, %25
  %27 = call noalias ptr @malloc(i64 noundef %26) #15
  br label %29

28:                                               ; preds = %11
  br label %29

29:                                               ; preds = %28, %21
  %30 = phi ptr [ %27, %21 ], [ null, %28 ]
  %31 = load ptr, ptr %3, align 8, !tbaa !39
  %32 = getelementptr inbounds nuw %struct.Vec_Int_t_, ptr %31, i32 0, i32 2
  store ptr %30, ptr %32, align 8, !tbaa !73
  %33 = load ptr, ptr %3, align 8, !tbaa !39
  call void @llvm.lifetime.end.p0(i64 8, ptr %3) #14
  ret ptr %33
}

; Function Attrs: inlinehint nounwind uwtable
define internal ptr @Vec_IntStartFull(i32 noundef %0) #2 {
  %2 = alloca i32, align 4
  %3 = alloca ptr, align 8
  store i32 %0, ptr %2, align 4, !tbaa !8
  call void @llvm.lifetime.start.p0(i64 8, ptr %3) #14
  %4 = load i32, ptr %2, align 4, !tbaa !8
  %5 = call ptr @Vec_IntAlloc(i32 noundef %4)
  store ptr %5, ptr %3, align 8, !tbaa !39
  %6 = load i32, ptr %2, align 4, !tbaa !8
  %7 = load ptr, ptr %3, align 8, !tbaa !39
  %8 = getelementptr inbounds nuw %struct.Vec_Int_t_, ptr %7, i32 0, i32 1
  store i32 %6, ptr %8, align 4, !tbaa !40
  %9 = load ptr, ptr %3, align 8, !tbaa !39
  %10 = getelementptr inbounds nuw %struct.Vec_Int_t_, ptr %9, i32 0, i32 2
  %11 = load ptr, ptr %10, align 8, !tbaa !73
  %12 = icmp ne ptr %11, null
  br i1 %12, label %13, label %20

13:                                               ; preds = %1
  %14 = load ptr, ptr %3, align 8, !tbaa !39
  %15 = getelementptr inbounds nuw %struct.Vec_Int_t_, ptr %14, i32 0, i32 2
  %16 = load ptr, ptr %15, align 8, !tbaa !73
  %17 = load i32, ptr %2, align 4, !tbaa !8
  %18 = sext i32 %17 to i64
  %19 = mul i64 4, %18
  call void @llvm.memset.p0.i64(ptr align 4 %16, i8 -1, i64 %19, i1 false)
  br label %20

20:                                               ; preds = %13, %1
  %21 = load ptr, ptr %3, align 8, !tbaa !39
  call void @llvm.lifetime.end.p0(i64 8, ptr %3) #14
  ret ptr %21
}

; Function Attrs: inlinehint nounwind uwtable
define internal i32 @Abc_PrimeCudd(i32 noundef %0) #2 {
  %2 = alloca i32, align 4
  %3 = alloca i32, align 4
  %4 = alloca i32, align 4
  store i32 %0, ptr %2, align 4, !tbaa !8
  call void @llvm.lifetime.start.p0(i64 4, ptr %3) #14
  call void @llvm.lifetime.start.p0(i64 4, ptr %4) #14
  %5 = load i32, ptr %2, align 4, !tbaa !8
  %6 = add i32 %5, -1
  store i32 %6, ptr %2, align 4, !tbaa !8
  br label %7

7:                                                ; preds = %32, %1
  %8 = load i32, ptr %2, align 4, !tbaa !8
  %9 = add i32 %8, 1
  store i32 %9, ptr %2, align 4, !tbaa !8
  %10 = load i32, ptr %2, align 4, !tbaa !8
  %11 = and i32 %10, 1
  %12 = icmp ne i32 %11, 0
  br i1 %12, label %13, label %30

13:                                               ; preds = %7
  store i32 1, ptr %4, align 4, !tbaa !8
  store i32 3, ptr %3, align 4, !tbaa !8
  br label %14

14:                                               ; preds = %26, %13
  %15 = load i32, ptr %3, align 4, !tbaa !8
  %16 = load i32, ptr %3, align 4, !tbaa !8
  %17 = mul nsw i32 %15, %16
  %18 = load i32, ptr %2, align 4, !tbaa !8
  %19 = icmp ule i32 %17, %18
  br i1 %19, label %20, label %29

20:                                               ; preds = %14
  %21 = load i32, ptr %2, align 4, !tbaa !8
  %22 = load i32, ptr %3, align 4, !tbaa !8
  %23 = urem i32 %21, %22
  %24 = icmp eq i32 %23, 0
  br i1 %24, label %25, label %26

25:                                               ; preds = %20
  store i32 0, ptr %4, align 4, !tbaa !8
  br label %29

26:                                               ; preds = %20
  %27 = load i32, ptr %3, align 4, !tbaa !8
  %28 = add nsw i32 %27, 2
  store i32 %28, ptr %3, align 4, !tbaa !8
  br label %14, !llvm.loop !277

29:                                               ; preds = %25, %14
  br label %31

30:                                               ; preds = %7
  store i32 0, ptr %4, align 4, !tbaa !8
  br label %31

31:                                               ; preds = %30, %29
  br label %32

32:                                               ; preds = %31
  %33 = load i32, ptr %4, align 4, !tbaa !8
  %34 = icmp ne i32 %33, 0
  %35 = xor i1 %34, true
  br i1 %35, label %7, label %36, !llvm.loop !278

36:                                               ; preds = %32
  %37 = load i32, ptr %2, align 4, !tbaa !8
  call void @llvm.lifetime.end.p0(i64 4, ptr %4) #14
  call void @llvm.lifetime.end.p0(i64 4, ptr %3) #14
  ret i32 %37
}

; Function Attrs: inlinehint nounwind uwtable
define internal void @Vec_MemHashAlloc(ptr noundef %0, i32 noundef %1) #2 {
  %3 = alloca ptr, align 8
  %4 = alloca i32, align 4
  store ptr %0, ptr %3, align 8, !tbaa !15
  store i32 %1, ptr %4, align 4, !tbaa !8
  %5 = load i32, ptr %4, align 4, !tbaa !8
  %6 = call i32 @Abc_PrimeCudd(i32 noundef %5)
  %7 = call ptr @Vec_IntStartFull(i32 noundef %6)
  %8 = load ptr, ptr %3, align 8, !tbaa !15
  %9 = getelementptr inbounds nuw %struct.Vec_Mem_t_, ptr %8, i32 0, i32 7
  store ptr %7, ptr %9, align 8, !tbaa !21
  %10 = load i32, ptr %4, align 4, !tbaa !8
  %11 = call ptr @Vec_IntAlloc(i32 noundef %10)
  %12 = load ptr, ptr %3, align 8, !tbaa !15
  %13 = getelementptr inbounds nuw %struct.Vec_Mem_t_, ptr %12, i32 0, i32 8
  store ptr %11, ptr %13, align 8, !tbaa !24
  ret void
}

; Function Attrs: inlinehint nounwind uwtable
define internal ptr @Vec_MemAlloc(i32 noundef %0, i32 noundef %1) #2 {
  %3 = alloca i32, align 4
  %4 = alloca i32, align 4
  %5 = alloca ptr, align 8
  store i32 %0, ptr %3, align 4, !tbaa !8
  store i32 %1, ptr %4, align 4, !tbaa !8
  call void @llvm.lifetime.start.p0(i64 8, ptr %5) #14
  %6 = call noalias ptr @calloc(i64 noundef 1, i64 noundef 48) #16
  store ptr %6, ptr %5, align 8, !tbaa !15
  %7 = load i32, ptr %3, align 4, !tbaa !8
  %8 = load ptr, ptr %5, align 8, !tbaa !15
  %9 = getelementptr inbounds nuw %struct.Vec_Mem_t_, ptr %8, i32 0, i32 0
  store i32 %7, ptr %9, align 8, !tbaa !78
  %10 = load i32, ptr %4, align 4, !tbaa !8
  %11 = load ptr, ptr %5, align 8, !tbaa !15
  %12 = getelementptr inbounds nuw %struct.Vec_Mem_t_, ptr %11, i32 0, i32 2
  store i32 %10, ptr %12, align 8, !tbaa !77
  %13 = load ptr, ptr %5, align 8, !tbaa !15
  %14 = getelementptr inbounds nuw %struct.Vec_Mem_t_, ptr %13, i32 0, i32 2
  %15 = load i32, ptr %14, align 8, !tbaa !77
  %16 = shl i32 1, %15
  %17 = sub nsw i32 %16, 1
  %18 = load ptr, ptr %5, align 8, !tbaa !15
  %19 = getelementptr inbounds nuw %struct.Vec_Mem_t_, ptr %18, i32 0, i32 3
  store i32 %17, ptr %19, align 4, !tbaa !79
  %20 = load ptr, ptr %5, align 8, !tbaa !15
  %21 = getelementptr inbounds nuw %struct.Vec_Mem_t_, ptr %20, i32 0, i32 5
  store i32 -1, ptr %21, align 4, !tbaa !25
  %22 = load ptr, ptr %5, align 8, !tbaa !15
  call void @llvm.lifetime.end.p0(i64 8, ptr %5) #14
  ret ptr %22
}

; Function Attrs: inlinehint nounwind uwtable
define internal ptr @Vec_MemAllocForTT(i32 noundef %0, i32 noundef %1) #2 {
  %3 = alloca i32, align 4
  %4 = alloca i32, align 4
  %5 = alloca i32, align 4
  %6 = alloca i32, align 4
  %7 = alloca ptr, align 8
  %8 = alloca ptr, align 8
  store i32 %0, ptr %3, align 4, !tbaa !8
  store i32 %1, ptr %4, align 4, !tbaa !8
  call void @llvm.lifetime.start.p0(i64 4, ptr %5) #14
  call void @llvm.lifetime.start.p0(i64 4, ptr %6) #14
  %9 = load i32, ptr %3, align 4, !tbaa !8
  %10 = icmp sle i32 %9, 6
  br i1 %10, label %11, label %12

11:                                               ; preds = %2
  br label %16

12:                                               ; preds = %2
  %13 = load i32, ptr %3, align 4, !tbaa !8
  %14 = sub nsw i32 %13, 6
  %15 = shl i32 1, %14
  br label %16

16:                                               ; preds = %12, %11
  %17 = phi i32 [ 1, %11 ], [ %15, %12 ]
  store i32 %17, ptr %6, align 4, !tbaa !8
  call void @llvm.lifetime.start.p0(i64 8, ptr %7) #14
  %18 = load i32, ptr %6, align 4, !tbaa !8
  %19 = sext i32 %18 to i64
  %20 = mul i64 8, %19
  %21 = call noalias ptr @malloc(i64 noundef %20) #15
  store ptr %21, ptr %7, align 8, !tbaa !3
  call void @llvm.lifetime.start.p0(i64 8, ptr %8) #14
  %22 = load i32, ptr %6, align 4, !tbaa !8
  %23 = call ptr @Vec_MemAlloc(i32 noundef %22, i32 noundef 12)
  store ptr %23, ptr %8, align 8, !tbaa !15
  %24 = load ptr, ptr %8, align 8, !tbaa !15
  call void @Vec_MemHashAlloc(ptr noundef %24, i32 noundef 10000)
  %25 = load ptr, ptr %7, align 8, !tbaa !3
  %26 = load i32, ptr %6, align 4, !tbaa !8
  %27 = sext i32 %26 to i64
  %28 = mul i64 8, %27
  call void @llvm.memset.p0.i64(ptr align 8 %25, i8 0, i64 %28, i1 false)
  %29 = load ptr, ptr %8, align 8, !tbaa !15
  %30 = load ptr, ptr %7, align 8, !tbaa !3
  %31 = call i32 @Vec_MemHashInsert(ptr noundef %29, ptr noundef %30)
  store i32 %31, ptr %5, align 4, !tbaa !8
  %32 = load i32, ptr %4, align 4, !tbaa !8
  %33 = icmp ne i32 %32, 0
  br i1 %33, label %34, label %39

34:                                               ; preds = %16
  %35 = load ptr, ptr %7, align 8, !tbaa !3
  %36 = load i32, ptr %6, align 4, !tbaa !8
  %37 = sext i32 %36 to i64
  %38 = mul i64 8, %37
  call void @llvm.memset.p0.i64(ptr align 8 %35, i8 85, i64 %38, i1 false)
  br label %44

39:                                               ; preds = %16
  %40 = load ptr, ptr %7, align 8, !tbaa !3
  %41 = load i32, ptr %6, align 4, !tbaa !8
  %42 = sext i32 %41 to i64
  %43 = mul i64 8, %42
  call void @llvm.memset.p0.i64(ptr align 8 %40, i8 -86, i64 %43, i1 false)
  br label %44

44:                                               ; preds = %39, %34
  %45 = load ptr, ptr %8, align 8, !tbaa !15
  %46 = load ptr, ptr %7, align 8, !tbaa !3
  %47 = call i32 @Vec_MemHashInsert(ptr noundef %45, ptr noundef %46)
  store i32 %47, ptr %5, align 4, !tbaa !8
  %48 = load ptr, ptr %7, align 8, !tbaa !3
  %49 = icmp ne ptr %48, null
  br i1 %49, label %50, label %52

50:                                               ; preds = %44
  %51 = load ptr, ptr %7, align 8, !tbaa !3
  call void @free(ptr noundef %51) #14
  store ptr null, ptr %7, align 8, !tbaa !3
  br label %53

52:                                               ; preds = %44
  br label %53

53:                                               ; preds = %52, %50
  %54 = load ptr, ptr %8, align 8, !tbaa !15
  call void @llvm.lifetime.end.p0(i64 8, ptr %8) #14
  call void @llvm.lifetime.end.p0(i64 8, ptr %7) #14
  call void @llvm.lifetime.end.p0(i64 4, ptr %6) #14
  call void @llvm.lifetime.end.p0(i64 4, ptr %5) #14
  ret ptr %54
}