; Function Attrs: inlinehint nounwind uwtable
define internal fastcc noalias noundef ptr @Vec_MemAllocForTT(i32 noundef %0) unnamed_addr #2 {
  %2 = icmp slt i32 %0, 7
  %3 = add nsw i32 %0, -6
  %4 = shl nuw i32 1, %3
  %5 = select i1 %2, i32 1, i32 %4
  %6 = sext i32 %5 to i64
  %7 = shl nsw i64 %6, 3
  %8 = tail call noalias ptr @malloc(i64 noundef %7) #27
  %9 = tail call noalias dereferenceable_or_null(48) ptr @calloc(i64 noundef 1, i64 noundef 48) #28
  store i32 %5, ptr %9, align 8, !tbaa !14
  %10 = getelementptr inbounds nuw i8, ptr %9, i64 8
  store i32 12, ptr %10, align 8, !tbaa !18
  %11 = getelementptr inbounds nuw i8, ptr %9, i64 12
  store i32 4095, ptr %11, align 4, !tbaa !19
  %12 = getelementptr inbounds nuw i8, ptr %9, i64 20
  store i32 -1, ptr %12, align 4, !tbaa !20
  br label %.loopexit.i.i

.loopexit.i.i:                                    ; preds = %.loopexit.i.i.backedge, %1
  %.012.i.i = phi i32 [ 9999, %1 ], [ %13, %.loopexit.i.i.backedge ]
  %13 = add i32 %.012.i.i, 1
  %14 = and i32 %.012.i.i, 1
  %.not.not.i.i = icmp eq i32 %14, 0
  br i1 %.not.not.i.i, label %.preheader.i.i, label %.loopexit.i.i.backedge

.loopexit.i.i.backedge:                           ; preds = %.lr.ph.i.i, %.loopexit.i.i
  br label %.loopexit.i.i, !llvm.loop !21

.preheader.i.i:                                   ; preds = %.loopexit.i.i
  %.not15.i.i = icmp ult i32 %13, 9
  br i1 %.not15.i.i, label %Abc_PrimeCudd.exit.i, label %.lr.ph.i.i

15:                                               ; preds = %.lr.ph.i.i
  %16 = add nuw nsw i32 %.01116.i.i, 2
  %17 = mul nuw nsw i32 %16, %16
  %.not.i.i = icmp ugt i32 %17, %13
  br i1 %.not.i.i, label %Abc_PrimeCudd.exit.i, label %.lr.ph.i.i, !llvm.loop !22

.lr.ph.i.i:                                       ; preds = %.preheader.i.i, %15
  %.01116.i.i = phi i32 [ %16, %15 ], [ 3, %.preheader.i.i ]
  %18 = urem i32 %13, %.01116.i.i
  %19 = icmp eq i32 %18, 0
  br i1 %19, label %.loopexit.i.i.backedge, label %15, !llvm.loop !21

Abc_PrimeCudd.exit.i:                             ; preds = %.preheader.i.i, %15
  %20 = tail call noalias dereferenceable_or_null(16) ptr @malloc(i64 noundef 16) #27
  %or.cond.i.i.i = icmp ult i32 %.012.i.i, 15
  %spec.store.select.i.i.i = select i1 %or.cond.i.i.i, i32 16, i32 %13
  store i32 %spec.store.select.i.i.i, ptr %20, align 8, !tbaa !23
  %21 = getelementptr inbounds nuw i8, ptr %20, i64 4
  %22 = sext i32 %spec.store.select.i.i.i to i64
  %23 = shl nsw i64 %22, 2
  %24 = tail call noalias ptr @malloc(i64 noundef %23) #27
  %25 = getelementptr inbounds nuw i8, ptr %20, i64 8
  store ptr %24, ptr %25, align 8, !tbaa !26
  store i32 %13, ptr %21, align 4, !tbaa !27
  %.not.i3.i = icmp eq ptr %24, null
  br i1 %.not.i3.i, label %Vec_MemHashAlloc.exit, label %26

26:                                               ; preds = %Abc_PrimeCudd.exit.i
  %27 = sext i32 %13 to i64
  %28 = shl nsw i64 %27, 2
  tail call void @llvm.memset.p0.i64(ptr nonnull align 4 %24, i8 -1, i64 %28, i1 false)
  br label %Vec_MemHashAlloc.exit

Vec_MemHashAlloc.exit:                            ; preds = %Abc_PrimeCudd.exit.i, %26
  %29 = getelementptr inbounds nuw i8, ptr %9, i64 32
  store ptr %20, ptr %29, align 8, !tbaa !28
  %30 = tail call noalias dereferenceable_or_null(16) ptr @malloc(i64 noundef 16) #27
  %31 = getelementptr inbounds nuw i8, ptr %30, i64 4
  store i32 0, ptr %31, align 4, !tbaa !27
  store i32 10000, ptr %30, align 8, !tbaa !23
  %32 = tail call noalias dereferenceable_or_null(40000) ptr @malloc(i64 noundef 40000) #27
  %33 = getelementptr inbounds nuw i8, ptr %30, i64 8
  store ptr %32, ptr %33, align 8, !tbaa !26
  %34 = getelementptr inbounds nuw i8, ptr %9, i64 40
  store ptr %30, ptr %34, align 8, !tbaa !29
  tail call void @llvm.memset.p0.i64(ptr noundef nonnull align 8 dereferenceable(1) %8, i8 0, i64 %7, i1 false)
  %35 = tail call fastcc i32 @Vec_MemHashInsert(ptr noundef nonnull %9, ptr noundef nonnull %8)
  tail call void @llvm.memset.p0.i64(ptr noundef nonnull align 8 dereferenceable(1) %8, i8 -86, i64 %7, i1 false)
  %36 = tail call fastcc i32 @Vec_MemHashInsert(ptr noundef nonnull %9, ptr noundef nonnull %8)
  tail call void @free(ptr noundef %8) #29
  ret ptr %9
}